target datalayout = "e-m:e-p270:32:32-p271:32:32-p272:64:64-i64:64-i128:128-f80:128-n8:16:32:64-S128"
target triple = "x86_64-pc-linux-gnu"

@.str.3 = private unnamed_addr constant [1 x i8] zeroinitializer, align 1
@.str.4 = private unnamed_addr constant [22 x i8] c"ui/preference_utils.c\00", align 1
@__func__.save_migrated_uat = private unnamed_addr constant [18 x i8] c"save_migrated_uat\00", align 1
@.str.5 = private unnamed_addr constant [22 x i8] c"Unable to save %s: %s\00", align 1

; Function Attrs: null_pointer_is_valid sspstrong uwtable
define hidden void @save_migrated_uat(ptr noundef %0, ptr noundef %1) #1 {
  %3 = alloca ptr, align 8
  %4 = alloca ptr, align 8
  %5 = alloca ptr, align 8
  %6 = alloca i32, align 4
  store ptr %0, ptr %3, align 8
  store ptr %1, ptr %4, align 8
  call void @llvm.lifetime.start.p0(i64 8, ptr %5) #9
  store ptr null, ptr %5, align 8
  %7 = load ptr, ptr %3, align 8
  %8 = call ptr @uat_get_table_by_name(ptr noundef %7)
  %9 = call zeroext i1 @uat_save(ptr noundef %8, ptr noundef %5)
  br i1 %9, label %17, label %10

10:                                               ; preds = %2
  br label %11

11:                                               ; preds = %10
  %12 = load ptr, ptr %3, align 8
  %13 = load ptr, ptr %5, align 8
  call void (ptr, i32, ptr, i64, ptr, ptr, ...) @ws_log_full(ptr noundef @.str.3, i32 noundef 5, ptr noundef @.str.4, i64 noundef 312, ptr noundef @__func__.save_migrated_uat, ptr noundef @.str.5, ptr noundef %12, ptr noundef %13)
  br label %14

14:                                               ; preds = %11
  br label %15

15:                                               ; preds = %14
  %16 = load ptr, ptr %5, align 8
  call void @g_free(ptr noundef %16)
  store i32 1, ptr %6, align 4
  br label %24

17:                                               ; preds = %2
  %18 = load ptr, ptr %4, align 8
  %19 = load i8, ptr %18, align 1, !range !6, !noundef !7
  %20 = trunc i8 %19 to i1
  br i1 %20, label %21, label %23

21:                                               ; preds = %17
  %22 = load ptr, ptr %4, align 8
  store i8 0, ptr %22, align 1
  call void @prefs_main_write()
  br label %23

23:                                               ; preds = %21, %17
  store i32 0, ptr %6, align 4
  br label %24

24:                                               ; preds = %23, %15
  call void @llvm.lifetime.end.p0(i64 8, ptr %5) #9
  %25 = load i32, ptr %6, align 4
  switch i32 %25, label %27 [
    i32 0, label %26
    i32 1, label %26
  ]

26:                                               ; preds = %24, %24
  ret void

27:                                               ; preds = %24
  unreachable
}