; Function Attrs: null_pointer_is_valid sspstrong uwtable
define hidden void @save_migrated_uat(ptr noundef %0, ptr noundef captures(none) %1) local_unnamed_addr #1 {
  %3 = alloca ptr, align 8
  call void @llvm.lifetime.start.p0(i64 8, ptr nonnull %3) #7
  store ptr null, ptr %3, align 8
  %4 = tail call ptr @uat_get_table_by_name(ptr noundef %0)
  %5 = call zeroext i1 @uat_save(ptr noundef %4, ptr noundef nonnull %3)
  br i1 %5, label %9, label %6

6:                                                ; preds = %2
  %7 = load ptr, ptr %3, align 8
  call void (ptr, i32, ptr, i64, ptr, ptr, ...) @ws_log_full(ptr noundef nonnull @.str.3, i32 noundef 5, ptr noundef nonnull @.str.4, i64 noundef 312, ptr noundef nonnull @__func__.save_migrated_uat, ptr noundef nonnull @.str.5, ptr noundef %0, ptr noundef %7)
  %8 = load ptr, ptr %3, align 8
  call void @g_free(ptr noundef %8)
  br label %13

9:                                                ; preds = %2
  %10 = load i8, ptr %1, align 1, !range !11, !noundef !12
  %11 = trunc nuw i8 %10 to i1
  br i1 %11, label %12, label %13

12:                                               ; preds = %9
  store i8 0, ptr %1, align 1
  call void @prefs_main_write()
  br label %13

13:                                               ; preds = %9, %12, %6
  call void @llvm.lifetime.end.p0(i64 8, ptr nonnull %3) #7
  ret void
}